; ModuleID = '26/1191.c'
source_filename = "26/1191.c"
target datalayout = "e-m:e-p270:32:32-p271:32:32-p272:64:64-i64:64-f80:128-n8:16:32:64-S128"
target triple = "x86_64-pc-linux-gnu"

@.str = private unnamed_addr constant [3 x i8] c"%c\00", align 1

; Function Attrs: noinline nounwind uwtable
define dso_local void @main() #0 {
  %1 = alloca i32, align 4
  %2 = alloca i32, align 4
  %3 = alloca i32, align 4
  %4 = alloca [101 x i8], align 16
  store i32 0, i32* %1, align 4
  store i32 0, i32* %3, align 4
  %5 = bitcast [101 x i8]* %4 to i8*
  call void @llvm.memset.p0i8.i64(i8* align 16 %5, i8 0, i64 101, i1 false)
  %6 = getelementptr inbounds [101 x i8], [101 x i8]* %4, i64 0, i64 0
  %7 = call i32 (i8*, ...) bitcast (i32 (...)* @gets to i32 (i8*, ...)*)(i8* %6)
  %8 = getelementptr inbounds [101 x i8], [101 x i8]* %4, i64 0, i64 0
  %9 = call i64 @strlen(i8* %8) #4
  %10 = trunc i64 %9 to i32
  store i32 %10, i32* %2, align 4
  br label %11

11:                                               ; preds = %41, %0
  %12 = load i32, i32* %1, align 4
  %13 = load i32, i32* %2, align 4
  %14 = icmp slt i32 %12, %13
  br i1 %14, label %15, label %44

15:                                               ; preds = %11
  %16 = load i32, i32* %3, align 4
  %17 = icmp ne i32 %16, 1
  br i1 %17, label %25, label %18

18:                                               ; preds = %15
  %19 = load i32, i32* %1, align 4
  %20 = sext i32 %19 to i64
  %21 = getelementptr inbounds [101 x i8], [101 x i8]* %4, i64 0, i64 %20
  %22 = load i8, i8* %21, align 1
  %23 = sext i8 %22 to i32
  %24 = icmp ne i32 %23, 32
  br i1 %24, label %25, label %32

25:                                               ; preds = %18, %15
  %26 = load i32, i32* %1, align 4
  %27 = sext i32 %26 to i64
  %28 = getelementptr inbounds [101 x i8], [101 x i8]* %4, i64 0, i64 %27
  %29 = load i8, i8* %28, align 1
  %30 = sext i8 %29 to i32
  %31 = call i32 (i8*, ...) @printf(i8* getelementptr inbounds ([3 x i8], [3 x i8]* @.str, i64 0, i64 0), i32 %30)
  br label %32

32:                                               ; preds = %25, %18
  %33 = load i32, i32* %1, align 4
  %34 = sext i32 %33 to i64
  %35 = getelementptr inbounds [101 x i8], [101 x i8]* %4, i64 0, i64 %34
  %36 = load i8, i8* %35, align 1
  %37 = sext i8 %36 to i32
  %38 = icmp eq i32 %37, 32
  br i1 %38, label %39, label %40

39:                                               ; preds = %32
  store i32 1, i32* %3, align 4
  br label %41

40:                                               ; preds = %32
  store i32 0, i32* %3, align 4
  br label %41

41:                                               ; preds = %40, %39
  %42 = load i32, i32* %1, align 4
  %43 = add nsw i32 %42, 1
  store i32 %43, i32* %1, align 4
  br label %11

44:                                               ; preds = %11
  ret void
}

; Function Attrs: argmemonly nounwind willreturn
declare void @llvm.memset.p0i8.i64(i8* nocapture writeonly, i8, i64, i1 immarg) #1

declare dso_local i32 @gets(...) #2

; Function Attrs: nounwind readonly
declare dso_local i64 @strlen(i8*) #3

declare dso_local i32 @printf(i8*, ...) #2


!llvm.module.flags = !{!0}
!llvm.ident = !{!1}

!0 = !{i32 1, !"wchar_size", i32 4}
!1 = !{!"clang version 10.0.0-4ubuntu1 "}
